; ModuleID = '20/1310.c'
source_filename = "20/1310.c"
target datalayout = "e-m:e-p270:32:32-p271:32:32-p272:64:64-i64:64-f80:128-n8:16:32:64-S128"
target triple = "x86_64-pc-linux-gnu"

%struct._IO_FILE = type { i32, i8*, i8*, i8*, i8*, i8*, i8*, i8*, i8*, i8*, i8*, i8*, %struct._IO_marker*, %struct._IO_FILE*, i32, i32, i64, i16, i8, [1 x i8], i8*, i64, %struct._IO_codecvt*, %struct._IO_wide_data*, %struct._IO_FILE*, i8*, i64, i32, [20 x i8] }
%struct._IO_marker = type opaque
%struct._IO_codecvt = type opaque
%struct._IO_wide_data = type opaque

@__const.main.c = private unnamed_addr constant <{ i8, [10 x i8] }> <{ i8 32, [10 x i8] zeroinitializer }>, align 1
@__const.main.cc = private unnamed_addr constant [4 x i8] c" \00\00\00", align 1
@stdin = external dso_local global %struct._IO_FILE*, align 8
@.str = private unnamed_addr constant [6 x i8] c"%s%s\0A\00", align 1
@.str.1 = private unnamed_addr constant [3 x i8] c"%s\00", align 1
@.str.2 = private unnamed_addr constant [2 x i8] c"\0A\00", align 1

; Function Attrs: noinline nounwind uwtable
define dso_local i32 @main() #0 {
  %1 = alloca i32, align 4
  %2 = alloca i32, align 4
  %3 = alloca i32, align 4
  %4 = alloca i32, align 4
  %5 = alloca i32, align 4
  %6 = alloca i32, align 4
  %7 = alloca i32, align 4
  %8 = alloca [11 x i8], align 1
  %9 = alloca [4 x i8], align 1
  store i32 0, i32* %1, align 4
  %10 = bitcast [11 x i8]* %8 to i8*
  call void @llvm.memcpy.p0i8.p0i8.i64(i8* align 1 %10, i8* align 1 getelementptr inbounds (<{ i8, [10 x i8] }>, <{ i8, [10 x i8] }>* @__const.main.c, i32 0, i32 0), i64 11, i1 false)
  %11 = bitcast [4 x i8]* %9 to i8*
  call void @llvm.memcpy.p0i8.p0i8.i64(i8* align 1 %11, i8* align 1 getelementptr inbounds ([4 x i8], [4 x i8]* @__const.main.cc, i32 0, i32 0), i64 4, i1 false)
  br label %12

12:                                               ; preds = %81, %0
  %13 = load %struct._IO_FILE*, %struct._IO_FILE** @stdin, align 8
  %14 = call i32 @feof(%struct._IO_FILE* %13) #5
  %15 = icmp ne i32 %14, 0
  %16 = xor i1 %15, true
  br i1 %16, label %17, label %83

17:                                               ; preds = %12
  %18 = getelementptr inbounds [11 x i8], [11 x i8]* %8, i64 0, i64 0
  %19 = getelementptr inbounds [4 x i8], [4 x i8]* %9, i64 0, i64 0
  %20 = call i32 (i8*, ...) @__isoc99_scanf(i8* getelementptr inbounds ([6 x i8], [6 x i8]* @.str, i64 0, i64 0), i8* %18, i8* %19)
  %21 = getelementptr inbounds [11 x i8], [11 x i8]* %8, i64 0, i64 0
  %22 = call i64 @strlen(i8* %21) #6
  %23 = sub i64 %22, 1
  %24 = trunc i64 %23 to i32
  store i32 %24, i32* %6, align 4
  store i32 0, i32* %3, align 4
  store i32 0, i32* %2, align 4
  br label %25

25:                                               ; preds = %44, %17
  %26 = load i32, i32* %2, align 4
  %27 = load i32, i32* %6, align 4
  %28 = icmp sle i32 %26, %27
  br i1 %28, label %29, label %47

29:                                               ; preds = %25
  %30 = load i32, i32* %2, align 4
  %31 = sext i32 %30 to i64
  %32 = getelementptr inbounds [11 x i8], [11 x i8]* %8, i64 0, i64 %31
  %33 = load i8, i8* %32, align 1
  %34 = sext i8 %33 to i32
  %35 = load i32, i32* %3, align 4
  %36 = sext i32 %35 to i64
  %37 = getelementptr inbounds [11 x i8], [11 x i8]* %8, i64 0, i64 %36
  %38 = load i8, i8* %37, align 1
  %39 = sext i8 %38 to i32
  %40 = icmp sgt i32 %34, %39
  br i1 %40, label %41, label %43

41:                                               ; preds = %29
  %42 = load i32, i32* %2, align 4
  store i32 %42, i32* %3, align 4
  br label %43

43:                                               ; preds = %41, %29
  br label %44

44:                                               ; preds = %43
  %45 = load i32, i32* %2, align 4
  %46 = add nsw i32 %45, 1
  store i32 %46, i32* %2, align 4
  br label %25

47:                                               ; preds = %25
  store i32 0, i32* %2, align 4
  br label %48

48:                                               ; preds = %59, %47
  %49 = load i32, i32* %2, align 4
  %50 = load i32, i32* %3, align 4
  %51 = icmp sle i32 %49, %50
  br i1 %51, label %52, label %62

52:                                               ; preds = %48
  %53 = load i32, i32* %2, align 4
  %54 = sext i32 %53 to i64
  %55 = getelementptr inbounds [11 x i8], [11 x i8]* %8, i64 0, i64 %54
  %56 = load i8, i8* %55, align 1
  %57 = sext i8 %56 to i32
  %58 = call i32 @putchar(i32 %57)
  br label %59

59:                                               ; preds = %52
  %60 = load i32, i32* %2, align 4
  %61 = add nsw i32 %60, 1
  store i32 %61, i32* %2, align 4
  br label %48

62:                                               ; preds = %48
  %63 = getelementptr inbounds [4 x i8], [4 x i8]* %9, i64 0, i64 0
  %64 = call i32 (i8*, ...) @printf(i8* getelementptr inbounds ([3 x i8], [3 x i8]* @.str.1, i64 0, i64 0), i8* %63)
  %65 = load i32, i32* %3, align 4
  %66 = add nsw i32 %65, 1
  store i32 %66, i32* %2, align 4
  br label %67

67:                                               ; preds = %78, %62
  %68 = load i32, i32* %2, align 4
  %69 = load i32, i32* %6, align 4
  %70 = icmp sle i32 %68, %69
  br i1 %70, label %71, label %81

71:                                               ; preds = %67
  %72 = load i32, i32* %2, align 4
  %73 = sext i32 %72 to i64
  %74 = getelementptr inbounds [11 x i8], [11 x i8]* %8, i64 0, i64 %73
  %75 = load i8, i8* %74, align 1
  %76 = sext i8 %75 to i32
  %77 = call i32 @putchar(i32 %76)
  br label %78

78:                                               ; preds = %71
  %79 = load i32, i32* %2, align 4
  %80 = add nsw i32 %79, 1
  store i32 %80, i32* %2, align 4
  br label %67

81:                                               ; preds = %67
  %82 = call i32 (i8*, ...) @printf(i8* getelementptr inbounds ([2 x i8], [2 x i8]* @.str.2, i64 0, i64 0))
  br label %12

83:                                               ; preds = %12
  ret i32 7
}

; Function Attrs: argmemonly nounwind willreturn
declare void @llvm.memcpy.p0i8.p0i8.i64(i8* noalias nocapture writeonly, i8* noalias nocapture readonly, i64, i1 immarg) #1

; Function Attrs: nounwind
declare dso_local i32 @feof(%struct._IO_FILE*) #2

declare dso_local i32 @__isoc99_scanf(i8*, ...) #3

; Function Attrs: nounwind readonly
declare dso_local i64 @strlen(i8*) #4

declare dso_local i32 @putchar(i32) #3

declare dso_local i32 @printf(i8*, ...) #3


!llvm.module.flags = !{!0}
!llvm.ident = !{!1}

!0 = !{i32 1, !"wchar_size", i32 4}
!1 = !{!"clang version 10.0.0-4ubuntu1 "}
